(dp0
Vpass
p1
L0L
sVpackageName
p2
Vcom.xky.app.patient
p3
sVtestSumDate
p4
V87\u79d2
p5
sVappName
p6
V'\u5065\u5eb7\u6df1\u5733'
p7
sVsum
p8
L1L
sVtestDate
p9
V2019-01-21 15:53:54
p10
sVappVersion
p11
V2.8.0
p12
sVfail
p13
L1L
s.